target datalayout = "e-m:e-p270:32:32-p271:32:32-p272:64:64-i64:64-i128:128-f80:128-n8:16:32:64-S128"
target triple = "x86_64-pc-linux-gnu"

; Function Attrs: inlinehint mustprogress nounwind uwtable
define internal noundef signext i8 @_ZL9U_FAILURE10UErrorCode(i32 noundef %0) #2 {
  %2 = alloca i32, align 4
  store i32 %0, ptr %2, align 4, !tbaa !15
  %3 = load i32, ptr %2, align 4, !tbaa !15
  %4 = icmp sgt i32 %3, 0
  %5 = zext i1 %4 to i8
  ret i8 %5
}

; Function Attrs: mustprogress uwtable
define noundef nonnull align 8 dereferenceable(64) ptr @_ZNK6icu_7712NumberFormat6formatERKNS_6number4impl15DecimalQuantityERNS_13UnicodeStringERNS_13FieldPositionER10UErrorCode(ptr noundef nonnull align 8 dereferenceable(60) %0, ptr noundef nonnull align 8 dereferenceable(66) %1, ptr noundef nonnull align 8 dereferenceable(64) %2, ptr noundef nonnull align 8 dereferenceable(20) %3, ptr noundef nonnull align 4 dereferenceable(4) %4) unnamed_addr #1 align 2 {
  %6 = alloca ptr, align 8
  %7 = alloca ptr, align 8
  %8 = alloca ptr, align 8
  %9 = alloca ptr, align 8
  %10 = alloca ptr, align 8
  %11 = alloca ptr, align 8
  %12 = alloca double, align 8
  store ptr %0, ptr %7, align 8, !tbaa !40
  store ptr %1, ptr %8, align 8, !tbaa !85
  store ptr %2, ptr %9, align 8, !tbaa !38
  store ptr %3, ptr %10, align 8, !tbaa !70
  store ptr %4, ptr %11, align 8, !tbaa !22
  %13 = load ptr, ptr %7, align 8
  %14 = load ptr, ptr %11, align 8, !tbaa !22
  %15 = load i32, ptr %14, align 4, !tbaa !15
  %16 = call noundef signext i8 @_ZL9U_FAILURE10UErrorCode(i32 noundef %15)
  %17 = icmp ne i8 %16, 0
  br i1 %17, label %18, label %20

18:                                               ; preds = %5
  %19 = load ptr, ptr %9, align 8, !tbaa !38
  store ptr %19, ptr %6, align 8
  br label %32

20:                                               ; preds = %5
  call void @llvm.lifetime.start.p0(i64 8, ptr %12) #15
  %21 = load ptr, ptr %8, align 8, !tbaa !85
  %22 = call noundef double @_ZNK6icu_776number4impl15DecimalQuantity8toDoubleEv(ptr noundef nonnull align 8 dereferenceable(66) %21)
  store double %22, ptr %12, align 8, !tbaa !66
  %23 = load double, ptr %12, align 8, !tbaa !66
  %24 = load ptr, ptr %9, align 8, !tbaa !38
  %25 = load ptr, ptr %10, align 8, !tbaa !70
  %26 = load ptr, ptr %11, align 8, !tbaa !22
  %27 = load ptr, ptr %13, align 8, !tbaa !30
  %28 = getelementptr inbounds ptr, ptr %27, i64 9
  %29 = load ptr, ptr %28, align 8
  %30 = call noundef nonnull align 8 dereferenceable(64) ptr %29(ptr noundef nonnull align 8 dereferenceable(60) %13, double noundef %23, ptr noundef nonnull align 8 dereferenceable(64) %24, ptr noundef nonnull align 8 dereferenceable(20) %25, ptr noundef nonnull align 4 dereferenceable(4) %26)
  %31 = load ptr, ptr %9, align 8, !tbaa !38
  store ptr %31, ptr %6, align 8
  call void @llvm.lifetime.end.p0(i64 8, ptr %12) #15
  br label %32

32:                                               ; preds = %20, %18
  %33 = load ptr, ptr %6, align 8
  ret ptr %33
}